; Function Attrs: null_pointer_is_valid sspstrong uwtable
define internal fastcc void @dissect_nvme_identify_ctrl_resp_fguid(ptr noundef %0, ptr noundef %1, i32 noundef range(i32 0, 113) %2) unnamed_addr #0 {
  %4 = load i32, ptr @hf_nvme_identify_ctrl_fguid, align 4
  %5 = sub nuw nsw i32 112, %2
  %6 = tail call ptr @proto_tree_add_item(ptr noundef %1, i32 noundef %4, ptr noundef %0, i32 noundef %5, i32 noundef 16, i32 noundef 0)
  %7 = load i32, ptr @ett_data, align 4
  %8 = tail call ptr @proto_item_add_subtree(ptr noundef %6, i32 noundef %7)
  %9 = load i32, ptr @hf_nvme_identify_ctrl_fguid_vse, align 4
  %10 = tail call ptr @proto_tree_add_item(ptr noundef %8, i32 noundef %9, ptr noundef %0, i32 noundef %5, i32 noundef 8, i32 noundef -2147483648)
  %11 = load i32, ptr @hf_nvme_identify_ctrl_fguid_oui, align 4
  %12 = sub nuw nsw i32 120, %2
  %13 = tail call ptr @proto_tree_add_item(ptr noundef %8, i32 noundef %11, ptr noundef %0, i32 noundef %12, i32 noundef 3, i32 noundef -2147483648)
  %14 = load i32, ptr @hf_nvme_identify_ctrl_fguid_ei, align 4
  %15 = sub nuw nsw i32 123, %2
  %16 = tail call ptr @proto_tree_add_item(ptr noundef %8, i32 noundef %14, ptr noundef %0, i32 noundef %15, i32 noundef 5, i32 noundef -2147483648)
  ret void
}